target datalayout = "e-m:e-p270:32:32-p271:32:32-p272:64:64-i64:64-i128:128-f80:128-n8:16:32:64-S128"
target triple = "x86_64-pc-linux-gnu"

%struct.bitmap_writer = type { ptr, ptr, ptr, ptr, ptr, ptr, ptr, i32, i32, %struct.string_list, ptr, i32, ptr, i32, [32 x i8] }
%struct.string_list = type { ptr, i64, i64, i8, ptr }
%struct.packing_data = type { ptr, ptr, i32, i32, ptr, i32, ptr, ptr, ptr, ptr, %union.pthread_mutex_t, ptr, i32, i32, i64, i64, ptr, ptr, ptr }
%union.pthread_mutex_t = type { %struct.__pthread_mutex_s }
%struct.__pthread_mutex_s = type { i32, i32, i32, i32, i32, i16, i16, %struct.__pthread_internal_list }
%struct.__pthread_internal_list = type { ptr, ptr }
%struct.object_entry = type { %struct.pack_idx_entry, ptr, i64, i32, i32, i32, i32, i32, [3 x i8], i8, i64 }
%struct.pack_idx_entry = type { %struct.object_id, i32, i64 }
%struct.object_id = type { [32 x i8], i32 }

@.str.2 = private unnamed_addr constant [40 x i8] c"Missing type information for %s (%d/%d)\00", align 1
@.str.14 = private unnamed_addr constant [27 x i8] c"size_t overflow: %lu * %lu\00", align 1

; Function Attrs: inlinehint nounwind uwtable
define internal i32 @oe_type(ptr noundef %0) #3 {
  %2 = alloca ptr, align 8
  store ptr %0, ptr %2, align 8, !tbaa !65
  %3 = load ptr, ptr %2, align 8, !tbaa !65
  %4 = getelementptr inbounds nuw %struct.object_entry, ptr %3, i32 0, i32 10
  %5 = load i64, ptr %4, align 8
  %6 = lshr i64 %5, 30
  %7 = and i64 %6, 1
  %8 = trunc i64 %7 to i32
  %9 = icmp ne i32 %8, 0
  br i1 %9, label %10, label %17

10:                                               ; preds = %1
  %11 = load ptr, ptr %2, align 8, !tbaa !65
  %12 = getelementptr inbounds nuw %struct.object_entry, ptr %11, i32 0, i32 10
  %13 = load i64, ptr %12, align 8
  %14 = lshr i64 %13, 32
  %15 = and i64 %14, 7
  %16 = trunc i64 %15 to i32
  br label %18

17:                                               ; preds = %1
  br label %18

18:                                               ; preds = %17, %10
  %19 = phi i32 [ %16, %10 ], [ -1, %17 ]
  ret i32 %19
}

; Function Attrs: inlinehint nounwind uwtable
define internal void @oe_set_in_pack_pos(ptr noundef %0, ptr noundef %1, i32 noundef %2) #3 {
  %4 = alloca ptr, align 8
  %5 = alloca ptr, align 8
  %6 = alloca i32, align 4
  store ptr %0, ptr %4, align 8, !tbaa !11
  store ptr %1, ptr %5, align 8, !tbaa !65
  store i32 %2, ptr %6, align 4, !tbaa !29
  %7 = load i32, ptr %6, align 4, !tbaa !29
  %8 = load ptr, ptr %4, align 8, !tbaa !11
  %9 = getelementptr inbounds nuw %struct.packing_data, ptr %8, i32 0, i32 6
  %10 = load ptr, ptr %9, align 8, !tbaa !62
  %11 = load ptr, ptr %5, align 8, !tbaa !65
  %12 = load ptr, ptr %4, align 8, !tbaa !11
  %13 = getelementptr inbounds nuw %struct.packing_data, ptr %12, i32 0, i32 1
  %14 = load ptr, ptr %13, align 8, !tbaa !69
  %15 = ptrtoint ptr %11 to i64
  %16 = ptrtoint ptr %14 to i64
  %17 = sub i64 %15, %16
  %18 = sdiv exact i64 %17, 96
  %19 = getelementptr inbounds i32, ptr %10, i64 %18
  store i32 %7, ptr %19, align 4, !tbaa !29
  ret void
}

; Function Attrs: inlinehint nounwind uwtable
define internal i64 @st_mult(i64 noundef %0, i64 noundef %1) #3 {
  %3 = alloca i64, align 8
  %4 = alloca i64, align 8
  store i64 %0, ptr %3, align 8, !tbaa !68
  store i64 %1, ptr %4, align 8, !tbaa !68
  %5 = load i64, ptr %3, align 8, !tbaa !68
  %6 = icmp ne i64 %5, 0
  br i1 %6, label %7, label %15

7:                                                ; preds = %2
  %8 = load i64, ptr %4, align 8, !tbaa !68
  %9 = load i64, ptr %3, align 8, !tbaa !68
  %10 = udiv i64 -1, %9
  %11 = icmp ugt i64 %8, %10
  br i1 %11, label %12, label %15

12:                                               ; preds = %7
  %13 = load i64, ptr %3, align 8, !tbaa !68
  %14 = load i64, ptr %4, align 8, !tbaa !68
  call void (ptr, ...) @die(ptr noundef @.str.14, i64 noundef %13, i64 noundef %14) #11
  unreachable

15:                                               ; preds = %7, %2
  %16 = load i64, ptr %3, align 8, !tbaa !68
  %17 = load i64, ptr %4, align 8, !tbaa !68
  %18 = mul i64 %16, %17
  ret i64 %18
}

; Function Attrs: nounwind uwtable
define dso_local void @bitmap_writer_build_type_index(ptr noundef %0, ptr noundef %1) #0 {
  %3 = alloca ptr, align 8
  %4 = alloca ptr, align 8
  %5 = alloca i32, align 4
  %6 = alloca ptr, align 8
  %7 = alloca i32, align 4
  store ptr %0, ptr %3, align 8, !tbaa !4
  store ptr %1, ptr %4, align 8, !tbaa !55
  call void @llvm.lifetime.start.p0(i64 4, ptr %5) #12
  %8 = call ptr @ewah_new()
  %9 = load ptr, ptr %3, align 8, !tbaa !4
  %10 = getelementptr inbounds nuw %struct.bitmap_writer, ptr %9, i32 0, i32 0
  store ptr %8, ptr %10, align 8, !tbaa !25
  %11 = call ptr @ewah_new()
  %12 = load ptr, ptr %3, align 8, !tbaa !4
  %13 = getelementptr inbounds nuw %struct.bitmap_writer, ptr %12, i32 0, i32 1
  store ptr %11, ptr %13, align 8, !tbaa !26
  %14 = call ptr @ewah_new()
  %15 = load ptr, ptr %3, align 8, !tbaa !4
  %16 = getelementptr inbounds nuw %struct.bitmap_writer, ptr %15, i32 0, i32 2
  store ptr %14, ptr %16, align 8, !tbaa !27
  %17 = call ptr @ewah_new()
  %18 = load ptr, ptr %3, align 8, !tbaa !4
  %19 = getelementptr inbounds nuw %struct.bitmap_writer, ptr %18, i32 0, i32 3
  store ptr %17, ptr %19, align 8, !tbaa !28
  %20 = load ptr, ptr %3, align 8, !tbaa !4
  %21 = getelementptr inbounds nuw %struct.bitmap_writer, ptr %20, i32 0, i32 5
  %22 = load ptr, ptr %21, align 8, !tbaa !24
  %23 = getelementptr inbounds nuw %struct.packing_data, ptr %22, i32 0, i32 2
  %24 = load i32, ptr %23, align 8, !tbaa !57
  %25 = zext i32 %24 to i64
  %26 = call i64 @st_mult(i64 noundef 4, i64 noundef %25)
  %27 = call ptr @xmalloc(i64 noundef %26)
  %28 = load ptr, ptr %3, align 8, !tbaa !4
  %29 = getelementptr inbounds nuw %struct.bitmap_writer, ptr %28, i32 0, i32 5
  %30 = load ptr, ptr %29, align 8, !tbaa !24
  %31 = getelementptr inbounds nuw %struct.packing_data, ptr %30, i32 0, i32 6
  store ptr %27, ptr %31, align 8, !tbaa !62
  store i32 0, ptr %5, align 4, !tbaa !29
  br label %32

32:                                               ; preds = %101, %2
  %33 = load i32, ptr %5, align 4, !tbaa !29
  %34 = load ptr, ptr %3, align 8, !tbaa !4
  %35 = getelementptr inbounds nuw %struct.bitmap_writer, ptr %34, i32 0, i32 5
  %36 = load ptr, ptr %35, align 8, !tbaa !24
  %37 = getelementptr inbounds nuw %struct.packing_data, ptr %36, i32 0, i32 2
  %38 = load i32, ptr %37, align 8, !tbaa !57
  %39 = icmp ult i32 %33, %38
  br i1 %39, label %40, label %104

40:                                               ; preds = %32
  call void @llvm.lifetime.start.p0(i64 8, ptr %6) #12
  %41 = load ptr, ptr %4, align 8, !tbaa !55
  %42 = load i32, ptr %5, align 4, !tbaa !29
  %43 = zext i32 %42 to i64
  %44 = getelementptr inbounds nuw ptr, ptr %41, i64 %43
  %45 = load ptr, ptr %44, align 8, !tbaa !63
  store ptr %45, ptr %6, align 8, !tbaa !65
  call void @llvm.lifetime.start.p0(i64 4, ptr %7) #12
  %46 = load ptr, ptr %3, align 8, !tbaa !4
  %47 = getelementptr inbounds nuw %struct.bitmap_writer, ptr %46, i32 0, i32 5
  %48 = load ptr, ptr %47, align 8, !tbaa !24
  %49 = load ptr, ptr %6, align 8, !tbaa !65
  %50 = load i32, ptr %5, align 4, !tbaa !29
  call void @oe_set_in_pack_pos(ptr noundef %48, ptr noundef %49, i32 noundef %50)
  %51 = load ptr, ptr %6, align 8, !tbaa !65
  %52 = call i32 @oe_type(ptr noundef %51)
  switch i32 %52, label %56 [
    i32 1, label %53
    i32 2, label %53
    i32 3, label %53
    i32 4, label %53
  ]

53:                                               ; preds = %40, %40, %40, %40
  %54 = load ptr, ptr %6, align 8, !tbaa !65
  %55 = call i32 @oe_type(ptr noundef %54)
  store i32 %55, ptr %7, align 4, !tbaa !29
  br label %66

56:                                               ; preds = %40
  %57 = load ptr, ptr %3, align 8, !tbaa !4
  %58 = getelementptr inbounds nuw %struct.bitmap_writer, ptr %57, i32 0, i32 5
  %59 = load ptr, ptr %58, align 8, !tbaa !24
  %60 = getelementptr inbounds nuw %struct.packing_data, ptr %59, i32 0, i32 0
  %61 = load ptr, ptr %60, align 8, !tbaa !66
  %62 = load ptr, ptr %6, align 8, !tbaa !65
  %63 = getelementptr inbounds nuw %struct.object_entry, ptr %62, i32 0, i32 0
  %64 = getelementptr inbounds nuw %struct.pack_idx_entry, ptr %63, i32 0, i32 0
  %65 = call i32 @oid_object_info(ptr noundef %61, ptr noundef %64, ptr noundef null)
  store i32 %65, ptr %7, align 4, !tbaa !29
  br label %66

66:                                               ; preds = %56, %53
  %67 = load i32, ptr %7, align 4, !tbaa !29
  switch i32 %67, label %92 [
    i32 1, label %68
    i32 2, label %74
    i32 3, label %80
    i32 4, label %86
  ]

68:                                               ; preds = %66
  %69 = load ptr, ptr %3, align 8, !tbaa !4
  %70 = getelementptr inbounds nuw %struct.bitmap_writer, ptr %69, i32 0, i32 0
  %71 = load ptr, ptr %70, align 8, !tbaa !25
  %72 = load i32, ptr %5, align 4, !tbaa !29
  %73 = zext i32 %72 to i64
  call void @ewah_set(ptr noundef %71, i64 noundef %73)
  br label %100

74:                                               ; preds = %66
  %75 = load ptr, ptr %3, align 8, !tbaa !4
  %76 = getelementptr inbounds nuw %struct.bitmap_writer, ptr %75, i32 0, i32 1
  %77 = load ptr, ptr %76, align 8, !tbaa !26
  %78 = load i32, ptr %5, align 4, !tbaa !29
  %79 = zext i32 %78 to i64
  call void @ewah_set(ptr noundef %77, i64 noundef %79)
  br label %100

80:                                               ; preds = %66
  %81 = load ptr, ptr %3, align 8, !tbaa !4
  %82 = getelementptr inbounds nuw %struct.bitmap_writer, ptr %81, i32 0, i32 2
  %83 = load ptr, ptr %82, align 8, !tbaa !27
  %84 = load i32, ptr %5, align 4, !tbaa !29
  %85 = zext i32 %84 to i64
  call void @ewah_set(ptr noundef %83, i64 noundef %85)
  br label %100

86:                                               ; preds = %66
  %87 = load ptr, ptr %3, align 8, !tbaa !4
  %88 = getelementptr inbounds nuw %struct.bitmap_writer, ptr %87, i32 0, i32 3
  %89 = load ptr, ptr %88, align 8, !tbaa !28
  %90 = load i32, ptr %5, align 4, !tbaa !29
  %91 = zext i32 %90 to i64
  call void @ewah_set(ptr noundef %89, i64 noundef %91)
  br label %100

92:                                               ; preds = %66
  %93 = load ptr, ptr %6, align 8, !tbaa !65
  %94 = getelementptr inbounds nuw %struct.object_entry, ptr %93, i32 0, i32 0
  %95 = getelementptr inbounds nuw %struct.pack_idx_entry, ptr %94, i32 0, i32 0
  %96 = call ptr @oid_to_hex(ptr noundef %95)
  %97 = load i32, ptr %7, align 4, !tbaa !29
  %98 = load ptr, ptr %6, align 8, !tbaa !65
  %99 = call i32 @oe_type(ptr noundef %98)
  call void (ptr, ...) @die(ptr noundef @.str.2, ptr noundef %96, i32 noundef %97, i32 noundef %99) #11
  unreachable

100:                                              ; preds = %86, %80, %74, %68
  call void @llvm.lifetime.end.p0(i64 4, ptr %7) #12
  call void @llvm.lifetime.end.p0(i64 8, ptr %6) #12
  br label %101

101:                                              ; preds = %100
  %102 = load i32, ptr %5, align 4, !tbaa !29
  %103 = add i32 %102, 1
  store i32 %103, ptr %5, align 4, !tbaa !29
  br label %32, !llvm.loop !67

104:                                              ; preds = %32
  call void @llvm.lifetime.end.p0(i64 4, ptr %5) #12
  ret void
}