; Function Attrs: nounwind uwtable
define dso_local void @bitmap_writer_build_type_index(ptr noundef captures(none) initializes((0, 32)) %0, ptr noundef readonly captures(none) %1) local_unnamed_addr #0 {
st_mult.exit:
  %2 = tail call ptr @ewah_new() #19
  store ptr %2, ptr %0, align 8, !tbaa !20
  %3 = tail call ptr @ewah_new() #19
  %4 = getelementptr inbounds nuw i8, ptr %0, i64 8
  store ptr %3, ptr %4, align 8, !tbaa !21
  %5 = tail call ptr @ewah_new() #19
  %6 = getelementptr inbounds nuw i8, ptr %0, i64 16
  store ptr %5, ptr %6, align 8, !tbaa !22
  %7 = tail call ptr @ewah_new() #19
  %8 = getelementptr inbounds nuw i8, ptr %0, i64 24
  store ptr %7, ptr %8, align 8, !tbaa !23
  %9 = getelementptr inbounds nuw i8, ptr %0, i64 40
  %10 = load ptr, ptr %9, align 8, !tbaa !19
  %11 = getelementptr inbounds nuw i8, ptr %10, i64 16
  %12 = load i32, ptr %11, align 8, !tbaa !45
  %13 = zext i32 %12 to i64
  %14 = shl nuw nsw i64 %13, 2
  %15 = tail call ptr @xmalloc(i64 noundef %14) #19
  %16 = load ptr, ptr %9, align 8, !tbaa !19
  %17 = getelementptr inbounds nuw i8, ptr %16, i64 40
  store ptr %15, ptr %17, align 8, !tbaa !52
  %18 = getelementptr inbounds nuw i8, ptr %16, i64 16
  %19 = load i32, ptr %18, align 8, !tbaa !45
  %.not = icmp eq i32 %19, 0
  br i1 %.not, label %._crit_edge, label %.lr.ph

.lr.ph:                                           ; preds = %st_mult.exit, %52
  %indvars.iv = phi i64 [ %indvars.iv.next, %52 ], [ 0, %st_mult.exit ]
  %20 = phi ptr [ %53, %52 ], [ %16, %st_mult.exit ]
  %21 = getelementptr inbounds nuw ptr, ptr %1, i64 %indvars.iv
  %22 = load ptr, ptr %21, align 8, !tbaa !53
  %23 = getelementptr i8, ptr %20, i64 8
  %.val = load ptr, ptr %23, align 8, !tbaa !55
  %24 = getelementptr i8, ptr %20, i64 40
  %.val30 = load ptr, ptr %24, align 8, !tbaa !52
  %25 = ptrtoint ptr %22 to i64
  %26 = ptrtoint ptr %.val to i64
  %27 = sub i64 %25, %26
  %28 = sdiv exact i64 %27, 24
  %29 = getelementptr inbounds i8, ptr %.val30, i64 %28
  %30 = trunc nuw i64 %indvars.iv to i32
  store i32 %30, ptr %29, align 4, !tbaa !31
  %31 = getelementptr i8, ptr %22, i64 88
  %.val31 = load i64, ptr %31, align 8
  %32 = and i64 %.val31, 1073741824
  %.not.i = icmp ne i64 %32, 0
  %33 = lshr i64 %.val31, 32
  %34 = trunc nuw i64 %33 to i32
  %35 = and i32 %34, 7
  %36 = add nsw i32 %35, -1
  %switch37 = icmp ult i32 %36, 4
  %switch = select i1 %.not.i, i1 %switch37, i1 false
  br i1 %switch, label %40, label %37

37:                                               ; preds = %.lr.ph
  %38 = load ptr, ptr %20, align 8, !tbaa !56
  %39 = tail call i32 @oid_object_info(ptr noundef %38, ptr noundef nonnull %22, ptr noundef null) #19
  br label %40

40:                                               ; preds = %.lr.ph, %37
  %.0 = phi i32 [ %39, %37 ], [ %35, %.lr.ph ]
  switch i32 %.0, label %44 [
    i32 1, label %52
    i32 2, label %41
    i32 3, label %42
    i32 4, label %43
  ]

41:                                               ; preds = %40
  br label %52

42:                                               ; preds = %40
  br label %52

43:                                               ; preds = %40
  br label %52

44:                                               ; preds = %40
  %45 = getelementptr i8, ptr %22, i64 88
  %46 = tail call ptr @oid_to_hex(ptr noundef nonnull %22) #19
  %.val33 = load i64, ptr %45, align 8
  %47 = and i64 %.val33, 1073741824
  %.not.i35 = icmp eq i64 %47, 0
  %48 = lshr i64 %.val33, 32
  %49 = trunc nuw i64 %48 to i32
  %50 = and i32 %49, 7
  %51 = select i1 %.not.i35, i32 -1, i32 %50
  tail call void (ptr, ...) @die(ptr noundef nonnull @.str.2, ptr noundef %46, i32 noundef %.0, i32 noundef %51) #20
  unreachable

52:                                               ; preds = %40, %43, %42, %41
  %.sink.in = phi ptr [ %8, %43 ], [ %6, %42 ], [ %4, %41 ], [ %0, %40 ]
  %.sink = load ptr, ptr %.sink.in, align 8, !tbaa !57
  tail call void @ewah_set(ptr noundef %.sink, i64 noundef %indvars.iv) #19
  %indvars.iv.next = add nuw nsw i64 %indvars.iv, 1
  %53 = load ptr, ptr %9, align 8, !tbaa !19
  %54 = getelementptr inbounds nuw i8, ptr %53, i64 16
  %55 = load i32, ptr %54, align 8, !tbaa !45
  %56 = zext i32 %55 to i64
  %57 = icmp samesign ult i64 %indvars.iv.next, %56
  br i1 %57, label %.lr.ph, label %._crit_edge, !llvm.loop !58

._crit_edge:                                      ; preds = %52, %st_mult.exit
  ret void
}